target datalayout = "e-m:e-p270:32:32-p271:32:32-p272:64:64-i64:64-i128:128-f80:128-n8:16:32:64-S128"
target triple = "x86_64-pc-linux-gnu"

%struct.pm_buffer_t = type { i64, i64, ptr }

; Function Attrs: nounwind sspstrong uwtable
define hidden void @pm_buffer_rstrip(ptr noundef %0) #0 {
  %2 = alloca ptr, align 8
  store ptr %0, ptr %2, align 8, !tbaa !7
  br label %3

3:                                                ; preds = %21, %1
  %4 = load ptr, ptr %2, align 8, !tbaa !7
  %5 = getelementptr inbounds nuw %struct.pm_buffer_t, ptr %4, i32 0, i32 0
  %6 = load i64, ptr %5, align 8, !tbaa !13
  %7 = icmp ugt i64 %6, 0
  br i1 %7, label %8, label %19

8:                                                ; preds = %3
  %9 = load ptr, ptr %2, align 8, !tbaa !7
  %10 = getelementptr inbounds nuw %struct.pm_buffer_t, ptr %9, i32 0, i32 2
  %11 = load ptr, ptr %10, align 8, !tbaa !17
  %12 = load ptr, ptr %2, align 8, !tbaa !7
  %13 = getelementptr inbounds nuw %struct.pm_buffer_t, ptr %12, i32 0, i32 0
  %14 = load i64, ptr %13, align 8, !tbaa !13
  %15 = sub i64 %14, 1
  %16 = getelementptr i8, ptr %11, i64 %15
  %17 = load i8, ptr %16, align 1, !tbaa !25
  %18 = call zeroext i1 @pm_char_is_whitespace(i8 noundef zeroext %17)
  br label %19

19:                                               ; preds = %8, %3
  %20 = phi i1 [ false, %3 ], [ %18, %8 ]
  br i1 %20, label %21, label %26

21:                                               ; preds = %19
  %22 = load ptr, ptr %2, align 8, !tbaa !7
  %23 = getelementptr inbounds nuw %struct.pm_buffer_t, ptr %22, i32 0, i32 0
  %24 = load i64, ptr %23, align 8, !tbaa !13
  %25 = add i64 %24, -1
  store i64 %25, ptr %23, align 8, !tbaa !13
  br label %3, !llvm.loop !30

26:                                               ; preds = %19
  ret void
}