; Function Attrs: nounwind sspstrong uwtable
define hidden void @pm_buffer_rstrip(ptr noundef captures(none) %0) local_unnamed_addr #4 {
  %.pr = load i64, ptr %0, align 8, !tbaa !7
  %.not4 = icmp eq i64 %.pr, 0
  br i1 %.not4, label %.critedge, label %.lr.ph

.lr.ph:                                           ; preds = %1
  %2 = getelementptr inbounds nuw i8, ptr %0, i64 16
  br label %3

3:                                                ; preds = %.lr.ph, %10
  %4 = phi i64 [ %.pr, %.lr.ph ], [ %12, %10 ]
  %5 = load ptr, ptr %2, align 8, !tbaa !15
  %6 = getelementptr i8, ptr %5, i64 %4
  %7 = getelementptr i8, ptr %6, i64 -1
  %8 = load i8, ptr %7, align 1, !tbaa !19
  %9 = tail call zeroext i1 @pm_char_is_whitespace(i8 noundef zeroext %8) #19
  br i1 %9, label %10, label %.critedge

10:                                               ; preds = %3
  %11 = load i64, ptr %0, align 8, !tbaa !7
  %12 = add i64 %11, -1
  store i64 %12, ptr %0, align 8, !tbaa !7
  %.not = icmp eq i64 %12, 0
  br i1 %.not, label %.critedge, label %3, !llvm.loop !21

.critedge:                                        ; preds = %3, %10, %1
  ret void
}